target datalayout = "e-m:e-p270:32:32-p271:32:32-p272:64:64-i64:64-i128:128-f80:128-n8:16:32:64-S128"
target triple = "x86_64-unknown-linux-gnu"

%"class.ue2::graph_detail::vertex_descriptor" = type { ptr, i64 }
%"struct.ue2::NFAGraphVertexProps" = type <{ %"class.ue2::CharReach", %"class.ue2::flat_set", i64, i32, [4 x i8] }>
%"class.ue2::CharReach" = type { %"class.ue2::bitfield" }
%"class.ue2::bitfield" = type { %"struct.std::array" }
%"struct.std::array" = type { [4 x i64] }
%"class.ue2::flat_set" = type { %"class.ue2::flat_detail::flat_base" }
%"class.ue2::flat_detail::flat_base" = type { %"class.std::tuple.17" }
%"class.std::tuple.17" = type { %"struct.std::_Tuple_impl.18" }
%"struct.std::_Tuple_impl.18" = type { %"struct.std::_Head_base.21" }
%"struct.std::_Head_base.21" = type { %"class.boost::container::small_vector" }
%"class.boost::container::small_vector" = type { %"class.boost::container::small_vector_base.base", [4 x i8] }
%"class.boost::container::small_vector_base.base" = type <{ %"class.boost::container::vector", %"union.boost::move_detail::aligned_struct_wrapper" }>
%"class.boost::container::vector" = type { %"struct.boost::container::vector_alloc_holder" }
%"struct.boost::container::vector_alloc_holder" = type { ptr, i64, i64 }
%"union.boost::move_detail::aligned_struct_wrapper" = type { %"struct.boost::move_detail::aligned_struct" }
%"struct.boost::move_detail::aligned_struct" = type { [4 x i8] }
%"struct.ue2::ue2_graph<ue2::NGHolder, ue2::NFAGraphVertexProps, ue2::NFAGraphEdgeProps>::vertex_node" = type { %"class.boost::intrusive::list_base_hook", %"struct.ue2::NFAGraphVertexProps", i64, %"class.boost::intrusive::list.181", %"class.boost::intrusive::list.185" }
%"class.boost::intrusive::list_base_hook" = type { %"class.boost::intrusive::generic_hook" }
%"class.boost::intrusive::generic_hook" = type { %"struct.boost::intrusive::node_holder" }
%"struct.boost::intrusive::node_holder" = type { %"struct.boost::intrusive::list_node" }
%"struct.boost::intrusive::list_node" = type { ptr, ptr }
%"class.boost::intrusive::list.181" = type { %"class.boost::intrusive::list_impl.182" }
%"class.boost::intrusive::list_impl.182" = type { %"struct.boost::intrusive::list_impl<boost::intrusive::bhtraits<ue2::ue2_graph<ue2::NGHolder, ue2::NFAGraphVertexProps, ue2::NFAGraphEdgeProps>::edge_node, boost::intrusive::list_node_traits<void *>, boost::intrusive::normal_link, ue2::ue2_graph<ue2::NGHolder, ue2::NFAGraphVertexProps, ue2::NFAGraphEdgeProps>::in_edge_tag, 1>, unsigned long, true, void>::data_t" }
%"struct.boost::intrusive::list_impl<boost::intrusive::bhtraits<ue2::ue2_graph<ue2::NGHolder, ue2::NFAGraphVertexProps, ue2::NFAGraphEdgeProps>::edge_node, boost::intrusive::list_node_traits<void *>, boost::intrusive::normal_link, ue2::ue2_graph<ue2::NGHolder, ue2::NFAGraphVertexProps, ue2::NFAGraphEdgeProps>::in_edge_tag, 1>, unsigned long, true, void>::data_t" = type { %"struct.boost::intrusive::list_impl<boost::intrusive::bhtraits<ue2::ue2_graph<ue2::NGHolder, ue2::NFAGraphVertexProps, ue2::NFAGraphEdgeProps>::edge_node, boost::intrusive::list_node_traits<void *>, boost::intrusive::normal_link, ue2::ue2_graph<ue2::NGHolder, ue2::NFAGraphVertexProps, ue2::NFAGraphEdgeProps>::in_edge_tag, 1>, unsigned long, true, void>::root_plus_size" }
%"struct.boost::intrusive::list_impl<boost::intrusive::bhtraits<ue2::ue2_graph<ue2::NGHolder, ue2::NFAGraphVertexProps, ue2::NFAGraphEdgeProps>::edge_node, boost::intrusive::list_node_traits<void *>, boost::intrusive::normal_link, ue2::ue2_graph<ue2::NGHolder, ue2::NFAGraphVertexProps, ue2::NFAGraphEdgeProps>::in_edge_tag, 1>, unsigned long, true, void>::root_plus_size" = type { %"struct.boost::intrusive::detail::size_holder", %"struct.boost::intrusive::detail::default_header_holder" }
%"struct.boost::intrusive::detail::size_holder" = type { i64 }
%"struct.boost::intrusive::detail::default_header_holder" = type { %"struct.boost::intrusive::list_node" }
%"class.boost::intrusive::list.185" = type { %"class.boost::intrusive::list_impl.186" }
%"class.boost::intrusive::list_impl.186" = type { %"struct.boost::intrusive::list_impl<boost::intrusive::bhtraits<ue2::ue2_graph<ue2::NGHolder, ue2::NFAGraphVertexProps, ue2::NFAGraphEdgeProps>::edge_node, boost::intrusive::list_node_traits<void *>, boost::intrusive::safe_link, ue2::ue2_graph<ue2::NGHolder, ue2::NFAGraphVertexProps, ue2::NFAGraphEdgeProps>::out_edge_tag, 1>, unsigned long, true, void>::data_t" }
%"struct.boost::intrusive::list_impl<boost::intrusive::bhtraits<ue2::ue2_graph<ue2::NGHolder, ue2::NFAGraphVertexProps, ue2::NFAGraphEdgeProps>::edge_node, boost::intrusive::list_node_traits<void *>, boost::intrusive::safe_link, ue2::ue2_graph<ue2::NGHolder, ue2::NFAGraphVertexProps, ue2::NFAGraphEdgeProps>::out_edge_tag, 1>, unsigned long, true, void>::data_t" = type { %"struct.boost::intrusive::list_impl<boost::intrusive::bhtraits<ue2::ue2_graph<ue2::NGHolder, ue2::NFAGraphVertexProps, ue2::NFAGraphEdgeProps>::edge_node, boost::intrusive::list_node_traits<void *>, boost::intrusive::safe_link, ue2::ue2_graph<ue2::NGHolder, ue2::NFAGraphVertexProps, ue2::NFAGraphEdgeProps>::out_edge_tag, 1>, unsigned long, true, void>::root_plus_size" }
%"struct.boost::intrusive::list_impl<boost::intrusive::bhtraits<ue2::ue2_graph<ue2::NGHolder, ue2::NFAGraphVertexProps, ue2::NFAGraphEdgeProps>::edge_node, boost::intrusive::list_node_traits<void *>, boost::intrusive::safe_link, ue2::ue2_graph<ue2::NGHolder, ue2::NFAGraphVertexProps, ue2::NFAGraphEdgeProps>::out_edge_tag, 1>, unsigned long, true, void>::root_plus_size" = type { %"struct.boost::intrusive::detail::size_holder", %"struct.boost::intrusive::detail::default_header_holder" }
%"class.ue2::NGHolder" = type { ptr, %"class.ue2::ue2_graph", i32, %"class.ue2::graph_detail::vertex_descriptor", %"class.ue2::graph_detail::vertex_descriptor", %"class.ue2::graph_detail::vertex_descriptor", %"class.ue2::graph_detail::vertex_descriptor" }
%"class.ue2::ue2_graph" = type { %"class.boost::intrusive::list", i64, i64, i64, i64 }
%"class.boost::intrusive::list" = type { %"class.boost::intrusive::list_impl" }
%"class.boost::intrusive::list_impl" = type { %"struct.boost::intrusive::list_impl<boost::intrusive::bhtraits<ue2::ue2_graph<ue2::NGHolder, ue2::NFAGraphVertexProps, ue2::NFAGraphEdgeProps>::vertex_node, boost::intrusive::list_node_traits<void *>, boost::intrusive::safe_link, boost::intrusive::dft_tag, 1>, unsigned long, true, void>::data_t" }
%"struct.boost::intrusive::list_impl<boost::intrusive::bhtraits<ue2::ue2_graph<ue2::NGHolder, ue2::NFAGraphVertexProps, ue2::NFAGraphEdgeProps>::vertex_node, boost::intrusive::list_node_traits<void *>, boost::intrusive::safe_link, boost::intrusive::dft_tag, 1>, unsigned long, true, void>::data_t" = type { %"struct.boost::intrusive::list_impl<boost::intrusive::bhtraits<ue2::ue2_graph<ue2::NGHolder, ue2::NFAGraphVertexProps, ue2::NFAGraphEdgeProps>::vertex_node, boost::intrusive::list_node_traits<void *>, boost::intrusive::safe_link, boost::intrusive::dft_tag, 1>, unsigned long, true, void>::root_plus_size" }
%"struct.boost::intrusive::list_impl<boost::intrusive::bhtraits<ue2::ue2_graph<ue2::NGHolder, ue2::NFAGraphVertexProps, ue2::NFAGraphEdgeProps>::vertex_node, boost::intrusive::list_node_traits<void *>, boost::intrusive::safe_link, boost::intrusive::dft_tag, 1>, unsigned long, true, void>::root_plus_size" = type { %"struct.boost::intrusive::detail::size_holder", %"struct.boost::intrusive::detail::default_header_holder" }

; Function Attrs: mustprogress nounwind uwtable
define linkonce_odr hidden noundef i64 @_ZNK5boost9intrusive6detail11size_holderILb1EmvE8get_sizeEv(ptr noundef nonnull align 8 dereferenceable(8) %this) #1 comdat align 2 {
entry:
  %this.addr = alloca ptr, align 8
  store ptr %this, ptr %this.addr, align 8
  %this1 = load ptr, ptr %this.addr, align 8
  %size_ = getelementptr inbounds %"struct.boost::intrusive::detail::size_holder", ptr %this1, i32 0, i32 0
  %0 = load i64, ptr %size_, align 8
  ret i64 %0
}

; Function Attrs: mustprogress nounwind uwtable
define linkonce_odr hidden noundef nonnull align 8 dereferenceable(8) ptr @_ZNK5boost9intrusive9list_implINS0_8bhtraitsIN3ue29ue2_graphINS3_8NGHolderENS3_19NFAGraphVertexPropsENS3_17NFAGraphEdgePropsEE9edge_nodeENS0_16list_node_traitsIPvEELNS0_14link_mode_typeE0ENS8_11in_edge_tagELj1EEEmLb1EvE16priv_size_traitsEv(ptr noundef nonnull align 8 dereferenceable(24) %this) #1 comdat align 2 {
entry:
  %this.addr = alloca ptr, align 8
  store ptr %this, ptr %this.addr, align 8
  %this1 = load ptr, ptr %this.addr, align 8
  %data_ = getelementptr inbounds %"class.boost::intrusive::list_impl.182", ptr %this1, i32 0, i32 0
  %root_plus_size_ = getelementptr inbounds %"struct.boost::intrusive::list_impl<boost::intrusive::bhtraits<ue2::ue2_graph<ue2::NGHolder, ue2::NFAGraphVertexProps, ue2::NFAGraphEdgeProps>::edge_node, boost::intrusive::list_node_traits<void *>, boost::intrusive::normal_link, ue2::ue2_graph<ue2::NGHolder, ue2::NFAGraphVertexProps, ue2::NFAGraphEdgeProps>::in_edge_tag, 1>, unsigned long, true, void>::data_t", ptr %data_, i32 0, i32 0
  ret ptr %root_plus_size_
}

; Function Attrs: mustprogress uwtable
define linkonce_odr hidden noundef i64 @_ZNK5boost9intrusive9list_implINS0_8bhtraitsIN3ue29ue2_graphINS3_8NGHolderENS3_19NFAGraphVertexPropsENS3_17NFAGraphEdgePropsEE9edge_nodeENS0_16list_node_traitsIPvEELNS0_14link_mode_typeE0ENS8_11in_edge_tagELj1EEEmLb1EvE4sizeEv(ptr noundef nonnull align 8 dereferenceable(24) %this) #3 comdat align 2 {
entry:
  %this.addr = alloca ptr, align 8
  store ptr %this, ptr %this.addr, align 8
  %this1 = load ptr, ptr %this.addr, align 8
  %call = call noundef nonnull align 8 dereferenceable(8) ptr @_ZNK5boost9intrusive9list_implINS0_8bhtraitsIN3ue29ue2_graphINS3_8NGHolderENS3_19NFAGraphVertexPropsENS3_17NFAGraphEdgePropsEE9edge_nodeENS0_16list_node_traitsIPvEELNS0_14link_mode_typeE0ENS8_11in_edge_tagELj1EEEmLb1EvE16priv_size_traitsEv(ptr noundef nonnull align 8 dereferenceable(24) %this1)
  %call2 = call noundef i64 @_ZNK5boost9intrusive6detail11size_holderILb1EmvE8get_sizeEv(ptr noundef nonnull align 8 dereferenceable(8) %call)
  ret i64 %call2
}

; Function Attrs: mustprogress nounwind uwtable
define linkonce_odr hidden noundef ptr @_ZN3ue212graph_detail17vertex_descriptorINS_9ue2_graphINS_8NGHolderENS_19NFAGraphVertexPropsENS_17NFAGraphEdgePropsEEEE3rawEv(ptr noundef nonnull align 8 dereferenceable(16) %this) #1 comdat align 2 {
entry:
  %this.addr = alloca ptr, align 8
  store ptr %this, ptr %this.addr, align 8
  %this1 = load ptr, ptr %this.addr, align 8
  %p = getelementptr inbounds %"class.ue2::graph_detail::vertex_descriptor", ptr %this1, i32 0, i32 0
  %0 = load ptr, ptr %p, align 8
  ret ptr %0
}

; Function Attrs: mustprogress uwtable
define linkonce_odr hidden noundef i64 @_ZN3ue29ue2_graphINS_8NGHolderENS_19NFAGraphVertexPropsENS_17NFAGraphEdgePropsEE14in_degree_implENS_12graph_detail17vertex_descriptorIS4_EE(ptr %v.coerce0, i64 %v.coerce1) #3 comdat align 2 {
entry:
  %v = alloca %"class.ue2::graph_detail::vertex_descriptor", align 8
  %0 = getelementptr inbounds { ptr, i64 }, ptr %v, i32 0, i32 0
  store ptr %v.coerce0, ptr %0, align 8
  %1 = getelementptr inbounds { ptr, i64 }, ptr %v, i32 0, i32 1
  store i64 %v.coerce1, ptr %1, align 8
  %call = call noundef ptr @_ZN3ue212graph_detail17vertex_descriptorINS_9ue2_graphINS_8NGHolderENS_19NFAGraphVertexPropsENS_17NFAGraphEdgePropsEEEE3rawEv(ptr noundef nonnull align 8 dereferenceable(16) %v)
  %in_edge_list = getelementptr inbounds %"struct.ue2::ue2_graph<ue2::NGHolder, ue2::NFAGraphVertexProps, ue2::NFAGraphEdgeProps>::vertex_node", ptr %call, i32 0, i32 3
  %call1 = call noundef i64 @_ZNK5boost9intrusive9list_implINS0_8bhtraitsIN3ue29ue2_graphINS3_8NGHolderENS3_19NFAGraphVertexPropsENS3_17NFAGraphEdgePropsEE9edge_nodeENS0_16list_node_traitsIPvEELNS0_14link_mode_typeE0ENS8_11in_edge_tagELj1EEEmLb1EvE4sizeEv(ptr noundef nonnull align 8 dereferenceable(24) %in_edge_list)
  ret i64 %call1
}

; Function Attrs: mustprogress uwtable
define linkonce_odr hidden noundef i64 @_ZN3ue29in_degreeINS_8NGHolderEEENSt9enable_ifIXsr12is_ue2_graphIT_EE5valueENS3_16degree_size_typeEE4typeENS3_17vertex_descriptorERKS3_(ptr %v.coerce0, i64 %v.coerce1, ptr noundef nonnull align 8 dereferenceable(136) %0) #3 comdat {
entry:
  %v = alloca %"class.ue2::graph_detail::vertex_descriptor", align 8
  %.addr = alloca ptr, align 8
  %agg.tmp = alloca %"class.ue2::graph_detail::vertex_descriptor", align 8
  %1 = getelementptr inbounds { ptr, i64 }, ptr %v, i32 0, i32 0
  store ptr %v.coerce0, ptr %1, align 8
  %2 = getelementptr inbounds { ptr, i64 }, ptr %v, i32 0, i32 1
  store i64 %v.coerce1, ptr %2, align 8
  store ptr %0, ptr %.addr, align 8
  call void @llvm.memcpy.p0.p0.i64(ptr align 8 %agg.tmp, ptr align 8 %v, i64 16, i1 false)
  %3 = getelementptr inbounds { ptr, i64 }, ptr %agg.tmp, i32 0, i32 0
  %4 = load ptr, ptr %3, align 8
  %5 = getelementptr inbounds { ptr, i64 }, ptr %agg.tmp, i32 0, i32 1
  %6 = load i64, ptr %5, align 8
  %call = call noundef i64 @_ZN3ue29ue2_graphINS_8NGHolderENS_19NFAGraphVertexPropsENS_17NFAGraphEdgePropsEE14in_degree_implENS_12graph_detail17vertex_descriptorIS4_EE(ptr %4, i64 %6)
  ret i64 %call
}

; Function Attrs: mustprogress uwtable
define hidden noundef zeroext i1 @_ZN3ue215can_never_matchERKNS_8NGHolderE(ptr noundef nonnull align 8 dereferenceable(136) %g) #3 {
entry:
  %retval = alloca i1, align 1
  %g.addr = alloca ptr, align 8
  %agg.tmp = alloca %"class.ue2::graph_detail::vertex_descriptor", align 8
  %agg.tmp1 = alloca %"class.ue2::graph_detail::vertex_descriptor", align 8
  store ptr %g, ptr %g.addr, align 8
  %0 = load ptr, ptr %g.addr, align 8
  %accept = getelementptr inbounds %"class.ue2::NGHolder", ptr %0, i32 0, i32 5
  call void @llvm.memcpy.p0.p0.i64(ptr align 8 %agg.tmp, ptr align 8 %accept, i64 16, i1 false)
  %1 = load ptr, ptr %g.addr, align 8
  %2 = getelementptr inbounds { ptr, i64 }, ptr %agg.tmp, i32 0, i32 0
  %3 = load ptr, ptr %2, align 8
  %4 = getelementptr inbounds { ptr, i64 }, ptr %agg.tmp, i32 0, i32 1
  %5 = load i64, ptr %4, align 8
  %call = call noundef i64 @_ZN3ue29in_degreeINS_8NGHolderEEENSt9enable_ifIXsr12is_ue2_graphIT_EE5valueENS3_16degree_size_typeEE4typeENS3_17vertex_descriptorERKS3_(ptr %3, i64 %5, ptr noundef nonnull align 8 dereferenceable(136) %1)
  %cmp = icmp eq i64 %call, 0
  br i1 %cmp, label %land.lhs.true, label %if.end

land.lhs.true:                                    ; preds = %entry
  %6 = load ptr, ptr %g.addr, align 8
  %acceptEod = getelementptr inbounds %"class.ue2::NGHolder", ptr %6, i32 0, i32 6
  call void @llvm.memcpy.p0.p0.i64(ptr align 8 %agg.tmp1, ptr align 8 %acceptEod, i64 16, i1 false)
  %7 = load ptr, ptr %g.addr, align 8
  %8 = getelementptr inbounds { ptr, i64 }, ptr %agg.tmp1, i32 0, i32 0
  %9 = load ptr, ptr %8, align 8
  %10 = getelementptr inbounds { ptr, i64 }, ptr %agg.tmp1, i32 0, i32 1
  %11 = load i64, ptr %10, align 8
  %call2 = call noundef i64 @_ZN3ue29in_degreeINS_8NGHolderEEENSt9enable_ifIXsr12is_ue2_graphIT_EE5valueENS3_16degree_size_typeEE4typeENS3_17vertex_descriptorERKS3_(ptr %9, i64 %11, ptr noundef nonnull align 8 dereferenceable(136) %7)
  %cmp3 = icmp eq i64 %call2, 1
  br i1 %cmp3, label %if.then, label %if.end

if.then:                                          ; preds = %land.lhs.true
  br label %do.body

do.body:                                          ; preds = %if.then
  br label %do.end

do.end:                                           ; preds = %do.body
  store i1 true, ptr %retval, align 1
  br label %return

if.end:                                           ; preds = %land.lhs.true, %entry
  store i1 false, ptr %retval, align 1
  br label %return

return:                                           ; preds = %if.end, %do.end
  %12 = load i1, ptr %retval, align 1
  ret i1 %12
}