; Function Attrs: mustprogress nofree norecurse nosync nounwind willreturn memory(read, inaccessiblemem: none) uwtable
define hidden noundef zeroext i1 @_ZN3ue215can_never_matchERKNS_8NGHolderE(ptr nocapture noundef nonnull readonly align 8 dereferenceable(136) %g) local_unnamed_addr #2 {
entry:
  %accept = getelementptr inbounds i8, ptr %g, i64 104
  %agg.tmp.sroa.0.0.copyload = load ptr, ptr %accept, align 8
  %in_edge_list.i.i = getelementptr inbounds i8, ptr %agg.tmp.sroa.0.0.copyload, i64 104
  %0 = load i64, ptr %in_edge_list.i.i, align 8
  %cmp = icmp eq i64 %0, 0
  br i1 %cmp, label %land.lhs.true, label %if.end

land.lhs.true:                                    ; preds = %entry
  %acceptEod = getelementptr inbounds i8, ptr %g, i64 120
  %agg.tmp1.sroa.0.0.copyload = load ptr, ptr %acceptEod, align 8
  %in_edge_list.i.i4 = getelementptr inbounds i8, ptr %agg.tmp1.sroa.0.0.copyload, i64 104
  %1 = load i64, ptr %in_edge_list.i.i4, align 8
  %cmp3 = icmp eq i64 %1, 1
  br i1 %cmp3, label %return, label %if.end

if.end:                                           ; preds = %land.lhs.true, %entry
  br label %return

return:                                           ; preds = %land.lhs.true, %if.end
  %retval.0 = phi i1 [ false, %if.end ], [ true, %land.lhs.true ]
  ret i1 %retval.0
}